target datalayout = "e-m:e-p270:32:32-p271:32:32-p272:64:64-i64:64-i128:128-f80:128-n8:16:32:64-S128"
target triple = "x86_64-pc-linux-gnu"

%struct.PaUtilHostApiRepresentation = type { %struct.PaUtilPrivatePaFrontHostApiInfo, %struct.PaHostApiInfo, ptr, ptr, ptr, ptr }
%struct.PaUtilPrivatePaFrontHostApiInfo = type { i64 }
%struct.PaHostApiInfo = type { i32, i32, ptr, i32, i32, i32 }
%struct.PaStreamParameters = type { i32, i32, i64, double, ptr }
%struct.PaUtilStreamRepresentation = type { i64, ptr, ptr, ptr, ptr, ptr, %struct.PaStreamInfo }
%struct.PaStreamInfo = type { i32, double, double, double }

@firstOpenStream_ = global ptr null, align 8
@initializationCount_ = internal global i32 0, align 4

; Function Attrs: nounwind uwtable
define internal void @AddOpenStream(ptr noundef %0) #0 {
  %2 = alloca ptr, align 8
  store ptr %0, ptr %2, align 8
  %3 = load ptr, ptr @firstOpenStream_, align 8
  %4 = load ptr, ptr %2, align 8
  %5 = getelementptr inbounds nuw %struct.PaUtilStreamRepresentation, ptr %4, i32 0, i32 1
  store ptr %3, ptr %5, align 8
  %6 = load ptr, ptr %2, align 8
  store ptr %6, ptr @firstOpenStream_, align 8
  ret void
}

; Function Attrs: nounwind uwtable
define i32 @Pa_OpenStream(ptr noundef %0, ptr noundef %1, ptr noundef %2, double noundef %3, i64 noundef %4, i64 noundef %5, ptr noundef %6, ptr noundef %7) #0 {
  %9 = alloca i32, align 4
  %10 = alloca ptr, align 8
  %11 = alloca ptr, align 8
  %12 = alloca ptr, align 8
  %13 = alloca double, align 8
  %14 = alloca i64, align 8
  %15 = alloca i64, align 8
  %16 = alloca ptr, align 8
  %17 = alloca ptr, align 8
  %18 = alloca i32, align 4
  %19 = alloca ptr, align 8
  %20 = alloca i32, align 4
  %21 = alloca i32, align 4
  %22 = alloca %struct.PaStreamParameters, align 8
  %23 = alloca %struct.PaStreamParameters, align 8
  %24 = alloca ptr, align 8
  %25 = alloca ptr, align 8
  store ptr %0, ptr %10, align 8
  store ptr %1, ptr %11, align 8
  store ptr %2, ptr %12, align 8
  store double %3, ptr %13, align 8
  store i64 %4, ptr %14, align 8
  store i64 %5, ptr %15, align 8
  store ptr %6, ptr %16, align 8
  store ptr %7, ptr %17, align 8
  store ptr null, ptr %19, align 8
  store i32 -1, ptr %20, align 4
  store i32 -1, ptr %21, align 4
  %26 = load i32, ptr @initializationCount_, align 4
  %27 = icmp ne i32 %26, 0
  br i1 %27, label %30, label %28

28:                                               ; preds = %8
  store i32 -10000, ptr %18, align 4
  %29 = load i32, ptr %18, align 4
  store i32 %29, ptr %9, align 4
  br label %114

30:                                               ; preds = %8
  %31 = load ptr, ptr %10, align 8
  %32 = icmp eq ptr %31, null
  br i1 %32, label %33, label %35

33:                                               ; preds = %30
  store i32 -9988, ptr %18, align 4
  %34 = load i32, ptr %18, align 4
  store i32 %34, ptr %9, align 4
  br label %114

35:                                               ; preds = %30
  %36 = load ptr, ptr %11, align 8
  %37 = load ptr, ptr %12, align 8
  %38 = load double, ptr %13, align 8
  %39 = load i64, ptr %14, align 8
  %40 = load i64, ptr %15, align 8
  %41 = load ptr, ptr %16, align 8
  %42 = call i32 @ValidateOpenStreamParameters(ptr noundef %36, ptr noundef %37, double noundef %38, i64 noundef %39, i64 noundef %40, ptr noundef %41, ptr noundef %19, ptr noundef %20, ptr noundef %21)
  store i32 %42, ptr %18, align 4
  %43 = load i32, ptr %18, align 4
  %44 = icmp ne i32 %43, 0
  br i1 %44, label %45, label %47

45:                                               ; preds = %35
  %46 = load i32, ptr %18, align 4
  store i32 %46, ptr %9, align 4
  br label %114

47:                                               ; preds = %35
  %48 = load ptr, ptr %11, align 8
  %49 = icmp ne ptr %48, null
  br i1 %49, label %50, label %69

50:                                               ; preds = %47
  %51 = load i32, ptr %20, align 4
  %52 = getelementptr inbounds nuw %struct.PaStreamParameters, ptr %22, i32 0, i32 0
  store i32 %51, ptr %52, align 8
  %53 = load ptr, ptr %11, align 8
  %54 = getelementptr inbounds nuw %struct.PaStreamParameters, ptr %53, i32 0, i32 1
  %55 = load i32, ptr %54, align 4
  %56 = getelementptr inbounds nuw %struct.PaStreamParameters, ptr %22, i32 0, i32 1
  store i32 %55, ptr %56, align 4
  %57 = load ptr, ptr %11, align 8
  %58 = getelementptr inbounds nuw %struct.PaStreamParameters, ptr %57, i32 0, i32 2
  %59 = load i64, ptr %58, align 8
  %60 = getelementptr inbounds nuw %struct.PaStreamParameters, ptr %22, i32 0, i32 2
  store i64 %59, ptr %60, align 8
  %61 = load ptr, ptr %11, align 8
  %62 = getelementptr inbounds nuw %struct.PaStreamParameters, ptr %61, i32 0, i32 3
  %63 = load double, ptr %62, align 8
  %64 = getelementptr inbounds nuw %struct.PaStreamParameters, ptr %22, i32 0, i32 3
  store double %63, ptr %64, align 8
  %65 = load ptr, ptr %11, align 8
  %66 = getelementptr inbounds nuw %struct.PaStreamParameters, ptr %65, i32 0, i32 4
  %67 = load ptr, ptr %66, align 8
  %68 = getelementptr inbounds nuw %struct.PaStreamParameters, ptr %22, i32 0, i32 4
  store ptr %67, ptr %68, align 8
  store ptr %22, ptr %24, align 8
  br label %70

69:                                               ; preds = %47
  store ptr null, ptr %24, align 8
  br label %70

70:                                               ; preds = %69, %50
  %71 = load ptr, ptr %12, align 8
  %72 = icmp ne ptr %71, null
  br i1 %72, label %73, label %92

73:                                               ; preds = %70
  %74 = load i32, ptr %21, align 4
  %75 = getelementptr inbounds nuw %struct.PaStreamParameters, ptr %23, i32 0, i32 0
  store i32 %74, ptr %75, align 8
  %76 = load ptr, ptr %12, align 8
  %77 = getelementptr inbounds nuw %struct.PaStreamParameters, ptr %76, i32 0, i32 1
  %78 = load i32, ptr %77, align 4
  %79 = getelementptr inbounds nuw %struct.PaStreamParameters, ptr %23, i32 0, i32 1
  store i32 %78, ptr %79, align 4
  %80 = load ptr, ptr %12, align 8
  %81 = getelementptr inbounds nuw %struct.PaStreamParameters, ptr %80, i32 0, i32 2
  %82 = load i64, ptr %81, align 8
  %83 = getelementptr inbounds nuw %struct.PaStreamParameters, ptr %23, i32 0, i32 2
  store i64 %82, ptr %83, align 8
  %84 = load ptr, ptr %12, align 8
  %85 = getelementptr inbounds nuw %struct.PaStreamParameters, ptr %84, i32 0, i32 3
  %86 = load double, ptr %85, align 8
  %87 = getelementptr inbounds nuw %struct.PaStreamParameters, ptr %23, i32 0, i32 3
  store double %86, ptr %87, align 8
  %88 = load ptr, ptr %12, align 8
  %89 = getelementptr inbounds nuw %struct.PaStreamParameters, ptr %88, i32 0, i32 4
  %90 = load ptr, ptr %89, align 8
  %91 = getelementptr inbounds nuw %struct.PaStreamParameters, ptr %23, i32 0, i32 4
  store ptr %90, ptr %91, align 8
  store ptr %23, ptr %25, align 8
  br label %93

92:                                               ; preds = %70
  store ptr null, ptr %25, align 8
  br label %93

93:                                               ; preds = %92, %73
  %94 = load ptr, ptr %19, align 8
  %95 = getelementptr inbounds nuw %struct.PaUtilHostApiRepresentation, ptr %94, i32 0, i32 4
  %96 = load ptr, ptr %95, align 8
  %97 = load ptr, ptr %19, align 8
  %98 = load ptr, ptr %10, align 8
  %99 = load ptr, ptr %24, align 8
  %100 = load ptr, ptr %25, align 8
  %101 = load double, ptr %13, align 8
  %102 = load i64, ptr %14, align 8
  %103 = load i64, ptr %15, align 8
  %104 = load ptr, ptr %16, align 8
  %105 = load ptr, ptr %17, align 8
  %106 = call i32 %96(ptr noundef %97, ptr noundef %98, ptr noundef %99, ptr noundef %100, double noundef %101, i64 noundef %102, i64 noundef %103, ptr noundef %104, ptr noundef %105)
  store i32 %106, ptr %18, align 4
  %107 = load i32, ptr %18, align 4
  %108 = icmp eq i32 %107, 0
  br i1 %108, label %109, label %112

109:                                              ; preds = %93
  %110 = load ptr, ptr %10, align 8
  %111 = load ptr, ptr %110, align 8
  call void @AddOpenStream(ptr noundef %111)
  br label %112

112:                                              ; preds = %109, %93
  %113 = load i32, ptr %18, align 4
  store i32 %113, ptr %9, align 4
  br label %114

114:                                              ; preds = %112, %45, %33, %28
  %115 = load i32, ptr %9, align 4
  ret i32 %115
}