; Function Attrs: nounwind uwtable
define i32 @Pa_OpenStream(ptr noundef %0, ptr noundef %1, ptr noundef %2, double noundef %3, i64 noundef %4, i64 noundef %5, ptr noundef %6, ptr noundef %7) local_unnamed_addr #3 {
  %9 = alloca ptr, align 8
  %10 = alloca i32, align 4
  %11 = alloca i32, align 4
  %12 = alloca %struct.PaStreamParameters, align 8
  %13 = alloca %struct.PaStreamParameters, align 8
  store ptr null, ptr %9, align 8
  store i32 -1, ptr %10, align 4
  store i32 -1, ptr %11, align 4
  %14 = load i32, ptr @initializationCount_, align 4
  %.not = icmp eq i32 %14, 0
  br i1 %.not, label %59, label %15

15:                                               ; preds = %8
  %16 = icmp eq ptr %0, null
  br i1 %16, label %59, label %17

17:                                               ; preds = %15
  %18 = call fastcc i32 @ValidateOpenStreamParameters(ptr noundef %1, ptr noundef %2, double noundef %3, i64 noundef %4, i64 noundef %5, ptr noundef %6, ptr noundef nonnull %9, ptr noundef nonnull %10, ptr noundef nonnull %11)
  %.not38 = icmp eq i32 %18, 0
  br i1 %.not38, label %19, label %59

19:                                               ; preds = %17
  %.not39 = icmp eq ptr %1, null
  br i1 %.not39, label %34, label %20

20:                                               ; preds = %19
  %21 = load i32, ptr %10, align 4
  store i32 %21, ptr %12, align 8
  %22 = getelementptr inbounds nuw i8, ptr %1, i64 4
  %23 = load i32, ptr %22, align 4
  %24 = getelementptr inbounds nuw i8, ptr %12, i64 4
  store i32 %23, ptr %24, align 4
  %25 = getelementptr inbounds nuw i8, ptr %1, i64 8
  %26 = load i64, ptr %25, align 8
  %27 = getelementptr inbounds nuw i8, ptr %12, i64 8
  store i64 %26, ptr %27, align 8
  %28 = getelementptr inbounds nuw i8, ptr %1, i64 16
  %29 = load double, ptr %28, align 8
  %30 = getelementptr inbounds nuw i8, ptr %12, i64 16
  store double %29, ptr %30, align 8
  %31 = getelementptr inbounds nuw i8, ptr %1, i64 24
  %32 = load ptr, ptr %31, align 8
  %33 = getelementptr inbounds nuw i8, ptr %12, i64 24
  store ptr %32, ptr %33, align 8
  br label %34

34:                                               ; preds = %19, %20
  %.032 = phi ptr [ %12, %20 ], [ null, %19 ]
  %.not40 = icmp eq ptr %2, null
  br i1 %.not40, label %49, label %35

35:                                               ; preds = %34
  %36 = load i32, ptr %11, align 4
  store i32 %36, ptr %13, align 8
  %37 = getelementptr inbounds nuw i8, ptr %2, i64 4
  %38 = load i32, ptr %37, align 4
  %39 = getelementptr inbounds nuw i8, ptr %13, i64 4
  store i32 %38, ptr %39, align 4
  %40 = getelementptr inbounds nuw i8, ptr %2, i64 8
  %41 = load i64, ptr %40, align 8
  %42 = getelementptr inbounds nuw i8, ptr %13, i64 8
  store i64 %41, ptr %42, align 8
  %43 = getelementptr inbounds nuw i8, ptr %2, i64 16
  %44 = load double, ptr %43, align 8
  %45 = getelementptr inbounds nuw i8, ptr %13, i64 16
  store double %44, ptr %45, align 8
  %46 = getelementptr inbounds nuw i8, ptr %2, i64 24
  %47 = load ptr, ptr %46, align 8
  %48 = getelementptr inbounds nuw i8, ptr %13, i64 24
  store ptr %47, ptr %48, align 8
  br label %49

49:                                               ; preds = %34, %35
  %.0 = phi ptr [ %13, %35 ], [ null, %34 ]
  %50 = load ptr, ptr %9, align 8
  %51 = getelementptr inbounds nuw i8, ptr %50, i64 56
  %52 = load ptr, ptr %51, align 8
  %53 = call i32 %52(ptr noundef %50, ptr noundef nonnull %0, ptr noundef %.032, ptr noundef %.0, double noundef %3, i64 noundef %4, i64 noundef %5, ptr noundef %6, ptr noundef %7) #12
  %54 = icmp eq i32 %53, 0
  br i1 %54, label %55, label %59

55:                                               ; preds = %49
  %56 = load ptr, ptr %0, align 8
  %57 = load ptr, ptr @firstOpenStream_, align 8
  %58 = getelementptr inbounds nuw i8, ptr %56, i64 8
  store ptr %57, ptr %58, align 8
  store ptr %56, ptr @firstOpenStream_, align 8
  br label %59

59:                                               ; preds = %49, %55, %17, %15, %8
  %.033 = phi i32 [ -10000, %8 ], [ -9988, %15 ], [ %18, %17 ], [ 0, %55 ], [ %53, %49 ]
  ret i32 %.033
}